
pong.bin:     file format ecoff-bigmips

Disassembly of section .text:

00000000 <.text>:
   0:	201d007f 	addi	sp,zero,127
   4:	23bdffe4 	addi	sp,sp,-28
   8:	20080027 	addi	t0,zero,39
   c:	afa80000 	sw	t0,0(sp)
  10:	2008001d 	addi	t0,zero,29
  14:	afa80004 	sw	t0,4(sp)
  18:	20080000 	addi	t0,zero,0
  1c:	afa80008 	sw	t0,8(sp)
  20:	20080002 	addi	t0,zero,2
  24:	afa8000c 	sw	t0,12(sp)
  28:	20080004 	addi	t0,zero,4
  2c:	afa80010 	sw	t0,16(sp)
  30:	20080001 	addi	t0,zero,1
  34:	afa80014 	sw	t0,20(sp)
  38:	20080006 	addi	t0,zero,6
  3c:	afa80018 	sw	t0,24(sp)
  40:	20100014 	addi	s0,zero,20
  44:	2011000f 	addi	s1,zero,15
  48:	20120002 	addi	s2,zero,2
  4c:	20130019 	addi	s3,zero,25
  50:	2014ffff 	addi	s4,zero,-1
  54:	2015ffff 	addi	s5,zero,-1
  58:	8fa40008 	lw	a0,8(sp)
  5c:	2405001e 	li	a1,30
  60:	24062800 	li	a2,10240
  64:	0c00005e 	jal	178 <.text+0x178>
  68:	8fa40008 	lw	a0,8(sp)
  6c:	00102820 	add	a1,zero,s0
  70:	00113020 	add	a2,zero,s1
  74:	0c00003f 	jal	fc <.text+0xfc>
  78:	8fa40008 	lw	a0,8(sp)
  7c:	00122820 	add	a1,zero,s2
  80:	00133020 	add	a2,zero,s3
  84:	8fa70018 	lw	a3,24(sp)
  88:	0c000055 	jal	154 <.text+0x154>
  8c:	8c0400fc 	lw	a0,252(zero)
  90:	8fa50018 	lw	a1,24(sp)
  94:	8fa60004 	lw	a2,4(sp)
  98:	0c000046 	jal	118 <.text+0x118>
  9c:	8fa40000 	lw	a0,0(sp)
  a0:	8fa50004 	lw	a1,4(sp)
  a4:	8fa60018 	lw	a2,24(sp)
  a8:	0c000072 	jal	1c8 <.text+0x1c8>
  ac:	02148020 	add	s0,s0,s4
  b0:	02358820 	add	s1,s1,s5
  b4:	8fa40010 	lw	a0,16(sp)
  b8:	00102820 	add	a1,zero,s0
  bc:	00113020 	add	a2,zero,s1
  c0:	0c00003f 	jal	fc <.text+0xfc>
  c4:	8fa4000c 	lw	a0,12(sp)
  c8:	00122820 	add	a1,zero,s2
  cc:	00133020 	add	a2,zero,s3
  d0:	8fa70018 	lw	a3,24(sp)
  d4:	0c000055 	jal	154 <.text+0x154>
  d8:	3404ffff 	li	a0,0xffff
  dc:	00042080 	sll	a0,a0,0x2
  e0:	0c00003a 	jal	e8 <.text+0xe8>
  e4:	0800001a 	j	68 <.text+0x68>
  e8:	00004020 	add	t0,zero,zero
  ec:	11040002 	beq	t0,a0,f8 <.text+0xf8>
  f0:	21080001 	addi	t0,t0,1
  f4:	0800003b 	j	ec <.text+0xec>
  f8:	03e00008 	jr	ra
  fc:	00044020 	add	t0,zero,a0
 100:	00084200 	sll	t0,t0,0x8
 104:	01054020 	add	t0,t0,a1
 108:	00084200 	sll	t0,t0,0x8
 10c:	01064020 	add	t0,t0,a2
 110:	ac0800ff 	sw	t0,255(zero)
 114:	03e00008 	jr	ra
 118:	00042102 	srl	a0,a0,0x4
 11c:	2084fff8 	addi	a0,a0,-8
 120:	04810001 	bgez	a0,128 <.text+0x128>
 124:	00002020 	add	a0,zero,zero
 128:	00852020 	add	a0,a0,a1
 12c:	00864022 	sub	t0,a0,a2
 130:	05000001 	bltz	t0,138 <.text+0x138>
 134:	2004001d 	addi	a0,zero,29
 138:	00049820 	add	s3,zero,a0
 13c:	03e00008 	jr	ra
 140:	00049820 	add	s3,zero,a0
 144:	0224082a 	slt	at,s1,a0
 148:	14200001 	bnez	at,150 <.text+0x150>
 14c:	00119820 	add	s3,zero,s1
 150:	03e00008 	jr	ra
 154:	00052a00 	sll	a1,a1,0x8
 158:	00a62821 	addu	a1,a1,a2
 15c:	00a73023 	subu	a2,a1,a3
 160:	27bdfffc 	addiu	sp,sp,-4
 164:	afbf0000 	sw	ra,0(sp)
 168:	0c00005e 	jal	178 <.text+0x178>
 16c:	8fbf0000 	lw	ra,0(sp)
 170:	27bd0004 	addiu	sp,sp,4
 174:	03e00008 	jr	ra
 178:	00055202 	srl	t2,a1,0x8
 17c:	30ab003f 	andi	t3,a1,0x3f
 180:	00066202 	srl	t4,a2,0x8
 184:	30cd003f 	andi	t5,a2,0x3f
 188:	000d4021 	addu	t0,zero,t5
 18c:	000a4821 	addu	t1,zero,t2
 190:	00047020 	add	t6,zero,a0
 194:	000e7200 	sll	t6,t6,0x8
 198:	01c97020 	add	t6,t6,t1
 19c:	000e7200 	sll	t6,t6,0x8
 1a0:	01c87020 	add	t6,t6,t0
 1a4:	ac0e00ff 	sw	t6,255(zero)
 1a8:	110b0002 	beq	t0,t3,1b4 <.text+0x1b4>
 1ac:	25080001 	addiu	t0,t0,1
 1b0:	08000064 	j	190 <.text+0x190>
 1b4:	112c0003 	beq	t1,t4,1c4 <.text+0x1c4>
 1b8:	25290001 	addiu	t1,t1,1
 1bc:	000d4021 	addu	t0,zero,t5
 1c0:	08000064 	j	190 <.text+0x190>
 1c4:	03e00008 	jr	ra
 1c8:	27bdfffc 	addiu	sp,sp,-4
 1cc:	afbf0000 	sw	ra,0(sp)
 1d0:	0c000079 	jal	1e4 <.text+0x1e4>
 1d4:	0c000087 	jal	21c <.text+0x21c>
 1d8:	8fbf0000 	lw	ra,0(sp)
 1dc:	27bd0004 	addiu	sp,sp,4
 1e0:	03e00008 	jr	ra
 1e4:	16040001 	bne	s0,a0,1ec <.text+0x1ec>
 1e8:	0014a022 	neg	s4,s4
 1ec:	16250001 	bne	s1,a1,1f4 <.text+0x1f4>
 1f0:	0015a822 	neg	s5,s5
 1f4:	16200001 	bnez	s1,1fc <.text+0x1fc>
 1f8:	0015a822 	neg	s5,s5
 1fc:	16000006 	bnez	s0,218 <.text+0x218>
 200:	8c0800fd 	lw	t0,253(zero)
 204:	20090001 	addi	t1,zero,1
 208:	11090001 	beq	t0,t1,210 <.text+0x210>
 20c:	08000080 	j	200 <.text+0x200>
 210:	20100014 	addi	s0,zero,20
 214:	2011000f 	addi	s1,zero,15
 218:	03e00008 	jr	ra
 21c:	22680001 	addi	t0,s3,1
 220:	02664822 	sub	t1,s3,a2
 224:	2129ffff 	addi	t1,t1,-1
 228:	224a0001 	addi	t2,s2,1
 22c:	11500001 	beq	t2,s0,234 <.text+0x234>
 230:	03e00008 	jr	ra
 234:	0111082a 	slt	at,t0,s1
 238:	10200001 	beqz	at,240 <.text+0x240>
 23c:	03e00008 	jr	ra
 240:	0229082a 	slt	at,s1,t1
 244:	10200001 	beqz	at,24c <.text+0x24c>
 248:	03e00008 	jr	ra
 24c:	0014a022 	neg	s4,s4
 250:	03e00008 	jr	ra
 254:	00000000 	nop
 258:	00000000 	nop
 25c:	00000000 	nop
